; Function Attrs: nounwind uwtable
define dso_local void @ReceiveCopyBegin(ptr noundef captures(none) %0) local_unnamed_addr #0 {
  %2 = alloca %struct.StringInfoData, align 8
  call void @llvm.lifetime.start.p0(i64 24, ptr nonnull %2) #16
  %3 = getelementptr inbounds nuw i8, ptr %0, i64 48
  %4 = load ptr, ptr %3, align 8
  %.not.i = icmp eq ptr %4, null
  br i1 %.not.i, label %list_length.exit, label %5

5:                                                ; preds = %1
  %6 = getelementptr inbounds nuw i8, ptr %4, i64 4
  %7 = load i32, ptr %6, align 4
  br label %list_length.exit

list_length.exit:                                 ; preds = %1, %5
  %8 = phi i32 [ %7, %5 ], [ 0, %1 ]
  %9 = getelementptr inbounds nuw i8, ptr %0, i64 84
  %10 = load i8, ptr %9, align 4, !range !4, !noundef !5
  call void @pq_beginmessage(ptr noundef nonnull %2, i8 noundef signext 71) #16
  call void @enlargeStringInfo(ptr noundef nonnull %2, i32 noundef 1) #16
  call void @llvm.experimental.noalias.scope.decl(metadata !6)
  %11 = load ptr, ptr %2, align 8, !alias.scope !6
  %12 = getelementptr inbounds nuw i8, ptr %2, i64 8
  %13 = load i32, ptr %12, align 8, !alias.scope !6
  %14 = sext i32 %13 to i64
  %15 = getelementptr inbounds i8, ptr %11, i64 %14
  store i8 %10, ptr %15, align 1, !noalias !6
  %16 = add i32 %13, 1
  store i32 %16, ptr %12, align 8, !alias.scope !6
  %17 = trunc i32 %8 to i16
  call void @enlargeStringInfo(ptr noundef nonnull %2, i32 noundef 2) #16
  call void @llvm.experimental.noalias.scope.decl(metadata !9)
  %18 = call i16 @llvm.bswap.i16(i16 %17)
  %19 = load ptr, ptr %2, align 8, !alias.scope !9
  %20 = load i32, ptr %12, align 8, !alias.scope !9
  %21 = sext i32 %20 to i64
  %22 = getelementptr inbounds i8, ptr %19, i64 %21
  store i16 %18, ptr %22, align 1, !noalias !9
  %23 = add i32 %20, 2
  store i32 %23, ptr %12, align 8, !alias.scope !9
  %24 = icmp sgt i32 %8, 0
  br i1 %24, label %.lr.ph, label %._crit_edge

.lr.ph:                                           ; preds = %list_length.exit
  %25 = zext nneg i8 %10 to i16
  %26 = shl nuw nsw i16 %25, 8
  br label %27

27:                                               ; preds = %.lr.ph, %27
  %.09 = phi i32 [ 0, %.lr.ph ], [ %33, %27 ]
  call void @enlargeStringInfo(ptr noundef nonnull %2, i32 noundef 2) #16
  call void @llvm.experimental.noalias.scope.decl(metadata !12)
  %28 = load ptr, ptr %2, align 8, !alias.scope !12
  %29 = load i32, ptr %12, align 8, !alias.scope !12
  %30 = sext i32 %29 to i64
  %31 = getelementptr inbounds i8, ptr %28, i64 %30
  store i16 %26, ptr %31, align 1, !noalias !12
  %32 = add i32 %29, 2
  store i32 %32, ptr %12, align 8, !alias.scope !12
  %33 = add nuw nsw i32 %.09, 1
  %exitcond.not = icmp eq i32 %33, %8
  br i1 %exitcond.not, label %._crit_edge, label %27, !llvm.loop !15

._crit_edge:                                      ; preds = %27, %list_length.exit
  call void @pq_endmessage(ptr noundef nonnull %2) #16
  store i32 1, ptr %0, align 8
  %34 = call ptr @makeStringInfo() #16
  %35 = getelementptr inbounds nuw i8, ptr %0, i64 16
  store ptr %34, ptr %35, align 8
  %36 = load ptr, ptr @PqCommMethods, align 8
  %37 = getelementptr inbounds nuw i8, ptr %36, i64 8
  %38 = load ptr, ptr %37, align 8
  %39 = call i32 %38() #16
  call void @llvm.lifetime.end.p0(i64 24, ptr nonnull %2) #16
  ret void
}